; ModuleID = '1744.c'
source_filename = "1744.c"
target datalayout = "e-m:e-p270:32:32-p271:32:32-p272:64:64-i64:64-f80:128-n8:16:32:64-S128"
target triple = "x86_64-pc-linux-gnu"

%struct.data = type { [50 x i8], i32, i32, i32, i8, i8, i32 }

@.str = private unnamed_addr constant [3 x i8] c"%d\00", align 1
@.str.1 = private unnamed_addr constant [18 x i8] c"%s %d %d %c %c %d\00", align 1
@.str.2 = private unnamed_addr constant [10 x i8] c"%s\0A%d\0A%d\0A\00", align 1

; Function Attrs: noinline nounwind uwtable
define dso_local i32 @main() #0 {
  %1 = alloca i32, align 4
  %2 = alloca i32, align 4
  %3 = alloca i32, align 4
  %4 = alloca i32, align 4
  %5 = alloca %struct.data*, align 8
  %6 = alloca i32, align 4
  %7 = alloca i32, align 4
  store i32 0, i32* %1, align 4
  store i32 0, i32* %4, align 4
  %8 = call i32 (i8*, ...) @__isoc99_scanf(i8* getelementptr inbounds ([3 x i8], [3 x i8]* @.str, i64 0, i64 0), i32* %2)
  %9 = load i32, i32* %2, align 4
  %10 = sext i32 %9 to i64
  %11 = mul i64 72, %10
  %12 = call noalias i8* @malloc(i64 %11) #3
  %13 = bitcast i8* %12 to %struct.data*
  store %struct.data* %13, %struct.data** %5, align 8
  store i32 0, i32* %3, align 4
  br label %14

14:                                               ; preds = %178, %0
  %15 = load i32, i32* %3, align 4
  %16 = load i32, i32* %2, align 4
  %17 = icmp slt i32 %15, %16
  br i1 %17, label %18, label %181

18:                                               ; preds = %14
  %19 = load %struct.data*, %struct.data** %5, align 8
  %20 = load i32, i32* %3, align 4
  %21 = sext i32 %20 to i64
  %22 = getelementptr inbounds %struct.data, %struct.data* %19, i64 %21
  %23 = getelementptr inbounds %struct.data, %struct.data* %22, i32 0, i32 0
  %24 = getelementptr inbounds [50 x i8], [50 x i8]* %23, i64 0, i64 0
  %25 = load %struct.data*, %struct.data** %5, align 8
  %26 = load i32, i32* %3, align 4
  %27 = sext i32 %26 to i64
  %28 = getelementptr inbounds %struct.data, %struct.data* %25, i64 %27
  %29 = getelementptr inbounds %struct.data, %struct.data* %28, i32 0, i32 1
  %30 = load %struct.data*, %struct.data** %5, align 8
  %31 = load i32, i32* %3, align 4
  %32 = sext i32 %31 to i64
  %33 = getelementptr inbounds %struct.data, %struct.data* %30, i64 %32
  %34 = getelementptr inbounds %struct.data, %struct.data* %33, i32 0, i32 2
  %35 = load %struct.data*, %struct.data** %5, align 8
  %36 = load i32, i32* %3, align 4
  %37 = sext i32 %36 to i64
  %38 = getelementptr inbounds %struct.data, %struct.data* %35, i64 %37
  %39 = getelementptr inbounds %struct.data, %struct.data* %38, i32 0, i32 4
  %40 = load %struct.data*, %struct.data** %5, align 8
  %41 = load i32, i32* %3, align 4
  %42 = sext i32 %41 to i64
  %43 = getelementptr inbounds %struct.data, %struct.data* %40, i64 %42
  %44 = getelementptr inbounds %struct.data, %struct.data* %43, i32 0, i32 5
  %45 = load %struct.data*, %struct.data** %5, align 8
  %46 = load i32, i32* %3, align 4
  %47 = sext i32 %46 to i64
  %48 = getelementptr inbounds %struct.data, %struct.data* %45, i64 %47
  %49 = getelementptr inbounds %struct.data, %struct.data* %48, i32 0, i32 3
  %50 = call i32 (i8*, ...) @__isoc99_scanf(i8* getelementptr inbounds ([18 x i8], [18 x i8]* @.str.1, i64 0, i64 0), i8* %24, i32* %29, i32* %34, i8* %39, i8* %44, i32* %49)
  %51 = load %struct.data*, %struct.data** %5, align 8
  %52 = load i32, i32* %3, align 4
  %53 = sext i32 %52 to i64
  %54 = getelementptr inbounds %struct.data, %struct.data* %51, i64 %53
  %55 = getelementptr inbounds %struct.data, %struct.data* %54, i32 0, i32 6
  store i32 0, i32* %55, align 4
  %56 = load %struct.data*, %struct.data** %5, align 8
  %57 = load i32, i32* %3, align 4
  %58 = sext i32 %57 to i64
  %59 = getelementptr inbounds %struct.data, %struct.data* %56, i64 %58
  %60 = getelementptr inbounds %struct.data, %struct.data* %59, i32 0, i32 1
  %61 = load i32, i32* %60, align 4
  %62 = icmp sgt i32 %61, 80
  br i1 %62, label %63, label %79

63:                                               ; preds = %18
  %64 = load %struct.data*, %struct.data** %5, align 8
  %65 = load i32, i32* %3, align 4
  %66 = sext i32 %65 to i64
  %67 = getelementptr inbounds %struct.data, %struct.data* %64, i64 %66
  %68 = getelementptr inbounds %struct.data, %struct.data* %67, i32 0, i32 3
  %69 = load i32, i32* %68, align 4
  %70 = icmp sge i32 %69, 1
  br i1 %70, label %71, label %79

71:                                               ; preds = %63
  %72 = load %struct.data*, %struct.data** %5, align 8
  %73 = load i32, i32* %3, align 4
  %74 = sext i32 %73 to i64
  %75 = getelementptr inbounds %struct.data, %struct.data* %72, i64 %74
  %76 = getelementptr inbounds %struct.data, %struct.data* %75, i32 0, i32 6
  %77 = load i32, i32* %76, align 4
  %78 = add nsw i32 %77, 8000
  store i32 %78, i32* %76, align 4
  br label %79

79:                                               ; preds = %71, %63, %18
  %80 = load %struct.data*, %struct.data** %5, align 8
  %81 = load i32, i32* %3, align 4
  %82 = sext i32 %81 to i64
  %83 = getelementptr inbounds %struct.data, %struct.data* %80, i64 %82
  %84 = getelementptr inbounds %struct.data, %struct.data* %83, i32 0, i32 1
  %85 = load i32, i32* %84, align 4
  %86 = icmp sgt i32 %85, 85
  br i1 %86, label %87, label %103

87:                                               ; preds = %79
  %88 = load %struct.data*, %struct.data** %5, align 8
  %89 = load i32, i32* %3, align 4
  %90 = sext i32 %89 to i64
  %91 = getelementptr inbounds %struct.data, %struct.data* %88, i64 %90
  %92 = getelementptr inbounds %struct.data, %struct.data* %91, i32 0, i32 2
  %93 = load i32, i32* %92, align 4
  %94 = icmp sgt i32 %93, 80
  br i1 %94, label %95, label %103

95:                                               ; preds = %87
  %96 = load %struct.data*, %struct.data** %5, align 8
  %97 = load i32, i32* %3, align 4
  %98 = sext i32 %97 to i64
  %99 = getelementptr inbounds %struct.data, %struct.data* %96, i64 %98
  %100 = getelementptr inbounds %struct.data, %struct.data* %99, i32 0, i32 6
  %101 = load i32, i32* %100, align 4
  %102 = add nsw i32 %101, 4000
  store i32 %102, i32* %100, align 4
  br label %103

103:                                              ; preds = %95, %87, %79
  %104 = load %struct.data*, %struct.data** %5, align 8
  %105 = load i32, i32* %3, align 4
  %106 = sext i32 %105 to i64
  %107 = getelementptr inbounds %struct.data, %struct.data* %104, i64 %106
  %108 = getelementptr inbounds %struct.data, %struct.data* %107, i32 0, i32 1
  %109 = load i32, i32* %108, align 4
  %110 = icmp sgt i32 %109, 90
  br i1 %110, label %111, label %119

111:                                              ; preds = %103
  %112 = load %struct.data*, %struct.data** %5, align 8
  %113 = load i32, i32* %3, align 4
  %114 = sext i32 %113 to i64
  %115 = getelementptr inbounds %struct.data, %struct.data* %112, i64 %114
  %116 = getelementptr inbounds %struct.data, %struct.data* %115, i32 0, i32 6
  %117 = load i32, i32* %116, align 4
  %118 = add nsw i32 %117, 2000
  store i32 %118, i32* %116, align 4
  br label %119

119:                                              ; preds = %111, %103
  %120 = load %struct.data*, %struct.data** %5, align 8
  %121 = load i32, i32* %3, align 4
  %122 = sext i32 %121 to i64
  %123 = getelementptr inbounds %struct.data, %struct.data* %120, i64 %122
  %124 = getelementptr inbounds %struct.data, %struct.data* %123, i32 0, i32 1
  %125 = load i32, i32* %124, align 4
  %126 = icmp sgt i32 %125, 85
  br i1 %126, label %127, label %144

127:                                              ; preds = %119
  %128 = load %struct.data*, %struct.data** %5, align 8
  %129 = load i32, i32* %3, align 4
  %130 = sext i32 %129 to i64
  %131 = getelementptr inbounds %struct.data, %struct.data* %128, i64 %130
  %132 = getelementptr inbounds %struct.data, %struct.data* %131, i32 0, i32 5
  %133 = load i8, i8* %132, align 1
  %134 = sext i8 %133 to i32
  %135 = icmp eq i32 %134, 89
  br i1 %135, label %136, label %144

136:                                              ; preds = %127
  %137 = load %struct.data*, %struct.data** %5, align 8
  %138 = load i32, i32* %3, align 4
  %139 = sext i32 %138 to i64
  %140 = getelementptr inbounds %struct.data, %struct.data* %137, i64 %139
  %141 = getelementptr inbounds %struct.data, %struct.data* %140, i32 0, i32 6
  %142 = load i32, i32* %141, align 4
  %143 = add nsw i32 %142, 1000
  store i32 %143, i32* %141, align 4
  br label %144

144:                                              ; preds = %136, %127, %119
  %145 = load %struct.data*, %struct.data** %5, align 8
  %146 = load i32, i32* %3, align 4
  %147 = sext i32 %146 to i64
  %148 = getelementptr inbounds %struct.data, %struct.data* %145, i64 %147
  %149 = getelementptr inbounds %struct.data, %struct.data* %148, i32 0, i32 2
  %150 = load i32, i32* %149, align 4
  %151 = icmp sgt i32 %150, 80
  br i1 %151, label %152, label %169

152:                                              ; preds = %144
  %153 = load %struct.data*, %struct.data** %5, align 8
  %154 = load i32, i32* %3, align 4
  %155 = sext i32 %154 to i64
  %156 = getelementptr inbounds %struct.data, %struct.data* %153, i64 %155
  %157 = getelementptr inbounds %struct.data, %struct.data* %156, i32 0, i32 4
  %158 = load i8, i8* %157, align 4
  %159 = sext i8 %158 to i32
  %160 = icmp eq i32 %159, 89
  br i1 %160, label %161, label %169

161:                                              ; preds = %152
  %162 = load %struct.data*, %struct.data** %5, align 8
  %163 = load i32, i32* %3, align 4
  %164 = sext i32 %163 to i64
  %165 = getelementptr inbounds %struct.data, %struct.data* %162, i64 %164
  %166 = getelementptr inbounds %struct.data, %struct.data* %165, i32 0, i32 6
  %167 = load i32, i32* %166, align 4
  %168 = add nsw i32 %167, 850
  store i32 %168, i32* %166, align 4
  br label %169

169:                                              ; preds = %161, %152, %144
  %170 = load %struct.data*, %struct.data** %5, align 8
  %171 = load i32, i32* %3, align 4
  %172 = sext i32 %171 to i64
  %173 = getelementptr inbounds %struct.data, %struct.data* %170, i64 %172
  %174 = getelementptr inbounds %struct.data, %struct.data* %173, i32 0, i32 6
  %175 = load i32, i32* %174, align 4
  %176 = load i32, i32* %4, align 4
  %177 = add nsw i32 %176, %175
  store i32 %177, i32* %4, align 4
  br label %178

178:                                              ; preds = %169
  %179 = load i32, i32* %3, align 4
  %180 = add nsw i32 %179, 1
  store i32 %180, i32* %3, align 4
  br label %14

181:                                              ; preds = %14
  %182 = load %struct.data*, %struct.data** %5, align 8
  %183 = load i32, i32* %2, align 4
  %184 = sub nsw i32 %183, 1
  %185 = sext i32 %184 to i64
  %186 = getelementptr inbounds %struct.data, %struct.data* %182, i64 %185
  %187 = getelementptr inbounds %struct.data, %struct.data* %186, i32 0, i32 6
  %188 = load i32, i32* %187, align 4
  store i32 %188, i32* %6, align 4
  store i32 0, i32* %7, align 4
  %189 = load i32, i32* %2, align 4
  %190 = sub nsw i32 %189, 1
  store i32 %190, i32* %3, align 4
  br label %191

191:                                              ; preds = %217, %181
  %192 = load i32, i32* %3, align 4
  %193 = icmp sgt i32 %192, 0
  br i1 %193, label %194, label %220

194:                                              ; preds = %191
  %195 = load i32, i32* %6, align 4
  %196 = load %struct.data*, %struct.data** %5, align 8
  %197 = load i32, i32* %3, align 4
  %198 = sub nsw i32 %197, 1
  %199 = sext i32 %198 to i64
  %200 = getelementptr inbounds %struct.data, %struct.data* %196, i64 %199
  %201 = getelementptr inbounds %struct.data, %struct.data* %200, i32 0, i32 6
  %202 = load i32, i32* %201, align 4
  %203 = icmp sgt i32 %195, %202
  br i1 %203, label %204, label %206

204:                                              ; preds = %194
  %205 = load i32, i32* %6, align 4
  store i32 %205, i32* %6, align 4
  br label %216

206:                                              ; preds = %194
  %207 = load %struct.data*, %struct.data** %5, align 8
  %208 = load i32, i32* %3, align 4
  %209 = sub nsw i32 %208, 1
  %210 = sext i32 %209 to i64
  %211 = getelementptr inbounds %struct.data, %struct.data* %207, i64 %210
  %212 = getelementptr inbounds %struct.data, %struct.data* %211, i32 0, i32 6
  %213 = load i32, i32* %212, align 4
  store i32 %213, i32* %6, align 4
  %214 = load i32, i32* %3, align 4
  %215 = sub nsw i32 %214, 1
  store i32 %215, i32* %7, align 4
  br label %216

216:                                              ; preds = %206, %204
  br label %217

217:                                              ; preds = %216
  %218 = load i32, i32* %3, align 4
  %219 = add nsw i32 %218, -1
  store i32 %219, i32* %3, align 4
  br label %191

220:                                              ; preds = %191
  %221 = load %struct.data*, %struct.data** %5, align 8
  %222 = load i32, i32* %7, align 4
  %223 = sext i32 %222 to i64
  %224 = getelementptr inbounds %struct.data, %struct.data* %221, i64 %223
  %225 = getelementptr inbounds %struct.data, %struct.data* %224, i32 0, i32 0
  %226 = getelementptr inbounds [50 x i8], [50 x i8]* %225, i64 0, i64 0
  %227 = load %struct.data*, %struct.data** %5, align 8
  %228 = load i32, i32* %7, align 4
  %229 = sext i32 %228 to i64
  %230 = getelementptr inbounds %struct.data, %struct.data* %227, i64 %229
  %231 = getelementptr inbounds %struct.data, %struct.data* %230, i32 0, i32 6
  %232 = load i32, i32* %231, align 4
  %233 = load i32, i32* %4, align 4
  %234 = call i32 (i8*, ...) @printf(i8* getelementptr inbounds ([10 x i8], [10 x i8]* @.str.2, i64 0, i64 0), i8* %226, i32 %232, i32 %233)
  ret i32 0
}

declare dso_local i32 @__isoc99_scanf(i8*, ...) #1

; Function Attrs: nounwind
declare dso_local noalias i8* @malloc(i64) #2

declare dso_local i32 @printf(i8*, ...) #1


!llvm.module.flags = !{!0}
!llvm.ident = !{!1}

!0 = !{i32 1, !"wchar_size", i32 4}
!1 = !{!"clang version 10.0.0-4ubuntu1 "}
